target datalayout = "e-m:e-p270:32:32-p271:32:32-p272:64:64-i64:64-i128:128-f80:128-n8:16:32:64-S128"
target triple = "x86_64-pc-linux-gnu"

%class.QString = type { %struct.QArrayDataPointer }
%struct.QArrayDataPointer = type { ptr, ptr, i64 }
%class.QWidget = type { %class.QObject, %class.QPaintDevice.base, ptr }
%class.QObject = type { ptr, %class.QScopedPointer }
%class.QScopedPointer = type { ptr }
%class.QPaintDevice.base = type <{ ptr, i16 }>
%class.QEvent = type { ptr, i16, i8, i8, i8, i8, i16 }
%struct.QArrayData = type { %class.QBasicAtomicInteger, %class.QFlags, i64 }
%class.QBasicAtomicInteger = type { %"struct.std::atomic" }
%"struct.std::atomic" = type { %"struct.std::__atomic_base" }
%"struct.std::__atomic_base" = type { i32 }
%class.QFlags = type { i32 }
%class.QWidgetData = type { i64, i32, %class.QFlags.14, i32, %class.QRect, [4 x i8], %class.QPalette, %class.QFont, %class.QRect }
%class.QFlags.14 = type { i32 }
%class.QPalette = type <{ ptr, i32, [4 x i8] }>
%class.QFont = type <{ %class.QExplicitlySharedDataPointer.15, i32, [4 x i8] }>
%class.QExplicitlySharedDataPointer.15 = type { ptr }
%class.QRect = type { i32, i32, i32, i32 }

; Function Attrs: mustprogress nounwind null_pointer_is_valid sspstrong uwtable
define linkonce_odr noundef i32 @_ZNSt13__atomic_baseIiEmmEv(ptr noundef align 4 dereferenceable_or_null(4) %0) #6 comdat align 2 {
  %2 = alloca ptr, align 8
  %3 = alloca i32, align 4
  %4 = alloca i32, align 4
  store ptr %0, ptr %2, align 8
  %5 = load ptr, ptr %2, align 8
  %6 = getelementptr inbounds nuw %"struct.std::__atomic_base", ptr %5, i32 0, i32 0
  store i32 1, ptr %3, align 4
  %7 = load i32, ptr %3, align 4
  %8 = atomicrmw sub ptr %6, i32 %7 seq_cst, align 4
  %9 = sub i32 %8, %7
  store i32 %9, ptr %4, align 4
  %10 = load i32, ptr %4, align 4
  ret i32 %10
}

; Function Attrs: inlinehint mustprogress nounwind null_pointer_is_valid sspstrong uwtable
define linkonce_odr noundef zeroext i1 @_ZN10QAtomicOpsIiE5derefIiEEbRSt6atomicIT_E(ptr noundef align 4 dereferenceable(4) %0) #3 comdat align 2 {
  %2 = alloca ptr, align 8
  store ptr %0, ptr %2, align 8
  %3 = load ptr, ptr %2, align 8
  %4 = call noundef i32 @_ZNSt13__atomic_baseIiEmmEv(ptr noundef align 4 dereferenceable_or_null(4) %3) #21
  %5 = icmp ne i32 %4, 0
  ret i1 %5
}

; Function Attrs: mustprogress nounwind null_pointer_is_valid sspstrong uwtable
define linkonce_odr noundef zeroext i1 @_ZN19QBasicAtomicIntegerIiE5derefEv(ptr noundef align 4 dereferenceable_or_null(4) %0) #6 comdat align 2 {
  %2 = alloca ptr, align 8
  store ptr %0, ptr %2, align 8
  %3 = load ptr, ptr %2, align 8
  %4 = getelementptr inbounds nuw %class.QBasicAtomicInteger, ptr %3, i32 0, i32 0
  %5 = call noundef zeroext i1 @_ZN10QAtomicOpsIiE5derefIiEEbRSt6atomicIT_E(ptr noundef align 4 dereferenceable(4) %4) #21
  ret i1 %5
}

; Function Attrs: mustprogress nounwind null_pointer_is_valid sspstrong uwtable
define linkonce_odr noundef zeroext i1 @_ZN10QArrayData5derefEv(ptr noundef align 8 dereferenceable_or_null(16) %0) #6 comdat align 2 {
  %2 = alloca ptr, align 8
  store ptr %0, ptr %2, align 8
  %3 = load ptr, ptr %2, align 8
  %4 = getelementptr inbounds nuw %struct.QArrayData, ptr %3, i32 0, i32 0
  %5 = call noundef zeroext i1 @_ZN19QBasicAtomicIntegerIiE5derefEv(ptr noundef align 4 dereferenceable_or_null(4) %4) #21
  ret i1 %5
}

; Function Attrs: mustprogress nounwind null_pointer_is_valid sspstrong uwtable
define linkonce_odr void @_ZN15QTypedArrayDataIDsE10deallocateEP10QArrayData(ptr noundef %0) #6 comdat align 2 {
  %2 = alloca ptr, align 8
  store ptr %0, ptr %2, align 8
  %3 = load ptr, ptr %2, align 8
  call void @_ZN10QArrayData10deallocateEPS_xx(ptr noundef %3, i64 noundef 2, i64 noundef 8) #21
  ret void
}

; Function Attrs: mustprogress nounwind null_pointer_is_valid sspstrong uwtable
define linkonce_odr void @_ZN9QtPrivate12QPodArrayOpsIDsE10destroyAllEv(ptr noundef align 8 dereferenceable_or_null(24) %0) #6 comdat align 2 {
  %2 = alloca ptr, align 8
  store ptr %0, ptr %2, align 8
  ret void
}

; Function Attrs: mustprogress nounwind null_pointer_is_valid sspstrong uwtable
define linkonce_odr noundef ptr @_ZN17QArrayDataPointerIDsEptEv(ptr noundef align 8 dereferenceable_or_null(24) %0) #6 comdat align 2 {
  %2 = alloca ptr, align 8
  store ptr %0, ptr %2, align 8
  %3 = load ptr, ptr %2, align 8
  ret ptr %3
}

; Function Attrs: mustprogress nounwind null_pointer_is_valid sspstrong uwtable
define linkonce_odr noundef zeroext i1 @_ZN17QArrayDataPointerIDsE5derefEv(ptr noundef align 8 dereferenceable_or_null(24) %0) #6 comdat align 2 {
  %2 = alloca ptr, align 8
  store ptr %0, ptr %2, align 8
  %3 = load ptr, ptr %2, align 8
  %4 = getelementptr inbounds nuw %struct.QArrayDataPointer, ptr %3, i32 0, i32 0
  %5 = load ptr, ptr %4, align 8
  %6 = icmp ne ptr %5, null
  br i1 %6, label %7, label %11

7:                                                ; preds = %1
  %8 = getelementptr inbounds nuw %struct.QArrayDataPointer, ptr %3, i32 0, i32 0
  %9 = load ptr, ptr %8, align 8
  %10 = call noundef zeroext i1 @_ZN10QArrayData5derefEv(ptr noundef align 8 dereferenceable_or_null(16) %9) #21
  br label %11

11:                                               ; preds = %7, %1
  %12 = phi i1 [ true, %1 ], [ %10, %7 ]
  ret i1 %12
}

; Function Attrs: mustprogress nounwind null_pointer_is_valid sspstrong uwtable
define linkonce_odr void @_ZN17QArrayDataPointerIDsED2Ev(ptr noundef align 8 dereferenceable_or_null(24) %0) unnamed_addr #6 comdat align 2 {
  %2 = alloca ptr, align 8
  store ptr %0, ptr %2, align 8
  %3 = load ptr, ptr %2, align 8
  %4 = call noundef zeroext i1 @_ZN17QArrayDataPointerIDsE5derefEv(ptr noundef align 8 dereferenceable_or_null(24) %3) #21
  br i1 %4, label %9, label %5

5:                                                ; preds = %1
  %6 = call noundef ptr @_ZN17QArrayDataPointerIDsEptEv(ptr noundef align 8 dereferenceable_or_null(24) %3) #21
  call void @_ZN9QtPrivate12QPodArrayOpsIDsE10destroyAllEv(ptr noundef align 8 dereferenceable_or_null(24) %6) #21
  %7 = getelementptr inbounds nuw %struct.QArrayDataPointer, ptr %3, i32 0, i32 0
  %8 = load ptr, ptr %7, align 8
  call void @_ZN15QTypedArrayDataIDsE10deallocateEP10QArrayData(ptr noundef %8) #21
  br label %9

9:                                                ; preds = %5, %1
  ret void
}

; Function Attrs: mustprogress nounwind null_pointer_is_valid sspstrong uwtable
define linkonce_odr void @_ZN17QArrayDataPointerIDsEC2Ev(ptr noundef align 8 dereferenceable_or_null(24) %0) unnamed_addr #6 comdat align 2 {
  %2 = alloca ptr, align 8
  store ptr %0, ptr %2, align 8
  %3 = load ptr, ptr %2, align 8
  %4 = getelementptr inbounds nuw %struct.QArrayDataPointer, ptr %3, i32 0, i32 0
  store ptr null, ptr %4, align 8
  %5 = getelementptr inbounds nuw %struct.QArrayDataPointer, ptr %3, i32 0, i32 1
  store ptr null, ptr %5, align 8
  %6 = getelementptr inbounds nuw %struct.QArrayDataPointer, ptr %3, i32 0, i32 2
  store i64 0, ptr %6, align 8
  ret void
}

; Function Attrs: inlinehint mustprogress null_pointer_is_valid sspstrong uwtable
define linkonce_odr noundef zeroext i1 @_ZNK7QWidget13testAttributeEN2Qt15WidgetAttributeE(ptr noundef align 8 dereferenceable_or_null(40) %0, i32 noundef %1) #7 comdat align 2 {
  %3 = alloca i1, align 1
  %4 = alloca ptr, align 8
  %5 = alloca i32, align 4
  store ptr %0, ptr %4, align 8
  store i32 %1, ptr %5, align 4
  %6 = load ptr, ptr %4, align 8
  %7 = load i32, ptr %5, align 4
  %8 = icmp slt i32 %7, 32
  br i1 %8, label %9, label %18

9:                                                ; preds = %2
  %10 = getelementptr inbounds nuw %class.QWidget, ptr %6, i32 0, i32 2
  %11 = load ptr, ptr %10, align 8
  %12 = getelementptr inbounds nuw %class.QWidgetData, ptr %11, i32 0, i32 1
  %13 = load i32, ptr %12, align 8
  %14 = load i32, ptr %5, align 4
  %15 = shl i32 1, %14
  %16 = and i32 %13, %15
  %17 = icmp ne i32 %16, 0
  store i1 %17, ptr %3, align 1
  br label %21

18:                                               ; preds = %2
  %19 = load i32, ptr %5, align 4
  %20 = call noundef zeroext i1 @_ZNK7QWidget20testAttribute_helperEN2Qt15WidgetAttributeE(ptr noundef align 8 dereferenceable_or_null(40) %6, i32 noundef %19)
  store i1 %20, ptr %3, align 1
  br label %21

21:                                               ; preds = %18, %9
  %22 = load i1, ptr %3, align 1
  ret i1 %22
}

; Function Attrs: inlinehint mustprogress nounwind null_pointer_is_valid sspstrong uwtable
define linkonce_odr void @_ZN7QStringD2Ev(ptr noundef align 8 dereferenceable_or_null(24) %0) unnamed_addr #3 comdat align 2 {
  %2 = alloca ptr, align 8
  store ptr %0, ptr %2, align 8
  %3 = load ptr, ptr %2, align 8
  %4 = getelementptr inbounds nuw %class.QString, ptr %3, i32 0, i32 0
  call void @_ZN17QArrayDataPointerIDsED2Ev(ptr noundef align 8 dereferenceable_or_null(24) %4) #21
  ret void
}

; Function Attrs: inlinehint mustprogress nounwind null_pointer_is_valid sspstrong uwtable
define linkonce_odr void @_ZN7QStringC2Ev(ptr noundef align 8 dereferenceable_or_null(24) %0) unnamed_addr #3 comdat align 2 {
  %2 = alloca ptr, align 8
  store ptr %0, ptr %2, align 8
  %3 = load ptr, ptr %2, align 8
  %4 = getelementptr inbounds nuw %class.QString, ptr %3, i32 0, i32 0
  call void @_ZN17QArrayDataPointerIDsEC2Ev(ptr noundef align 8 dereferenceable_or_null(24) %4) #21
  ret void
}

; Function Attrs: inlinehint mustprogress null_pointer_is_valid sspstrong uwtable
define linkonce_odr noundef zeroext i1 @_ZNK7QWidget9isEnabledEv(ptr noundef align 8 dereferenceable_or_null(40) %0) #7 comdat align 2 {
  %2 = alloca ptr, align 8
  store ptr %0, ptr %2, align 8
  %3 = load ptr, ptr %2, align 8
  %4 = call noundef zeroext i1 @_ZNK7QWidget13testAttributeEN2Qt15WidgetAttributeE(ptr noundef align 8 dereferenceable_or_null(40) %3, i32 noundef 0)
  %5 = xor i1 %4, true
  ret i1 %5
}

; Function Attrs: inlinehint mustprogress nounwind null_pointer_is_valid sspstrong uwtable
define linkonce_odr noundef i32 @_ZNK6QEvent4typeEv(ptr noundef align 8 dereferenceable_or_null(16) %0) #3 comdat align 2 {
  %2 = alloca ptr, align 8
  store ptr %0, ptr %2, align 8
  %3 = load ptr, ptr %2, align 8
  %4 = getelementptr inbounds nuw %class.QEvent, ptr %3, i32 0, i32 1
  %5 = load i16, ptr %4, align 8
  %6 = zext i16 %5 to i32
  ret i32 %6
}

; Function Attrs: mustprogress null_pointer_is_valid sspstrong uwtable
define noundef zeroext i1 @_ZN19StockIconToolButton5eventEP6QEvent(ptr noundef align 8 dereferenceable_or_null(72) %0, ptr noundef %1) unnamed_addr #0 align 2 personality ptr @__gxx_personality_v0 {
  %3 = alloca ptr, align 8
  %4 = alloca ptr, align 8
  %5 = alloca %class.QString, align 8
  %6 = alloca ptr, align 8
  %7 = alloca i32, align 4
  store ptr %0, ptr %3, align 8
  store ptr %1, ptr %4, align 8
  %8 = load ptr, ptr %3, align 8
  %9 = load ptr, ptr %4, align 8
  %10 = call noundef i32 @_ZNK6QEvent4typeEv(ptr noundef align 8 dereferenceable_or_null(16) %9)
  switch i32 %10, label %30 [
    i32 10, label %11
    i32 11, label %15
    i32 2, label %19
    i32 3, label %23
    i32 38, label %24
  ]

11:                                               ; preds = %2
  %12 = call noundef zeroext i1 @_ZNK7QWidget9isEnabledEv(ptr noundef align 8 dereferenceable_or_null(40) %8)
  br i1 %12, label %13, label %14

13:                                               ; preds = %11
  call void @_ZN19StockIconToolButton11setIconModeEN5QIcon4ModeE(ptr noundef align 8 dereferenceable_or_null(72) %8, i32 noundef 2)
  br label %14

14:                                               ; preds = %13, %11
  br label %31

15:                                               ; preds = %2
  %16 = call noundef zeroext i1 @_ZNK7QWidget9isEnabledEv(ptr noundef align 8 dereferenceable_or_null(40) %8)
  br i1 %16, label %17, label %18

17:                                               ; preds = %15
  call void @_ZN19StockIconToolButton11setIconModeEN5QIcon4ModeE(ptr noundef align 8 dereferenceable_or_null(72) %8, i32 noundef 0)
  br label %18

18:                                               ; preds = %17, %15
  br label %31

19:                                               ; preds = %2
  %20 = call noundef zeroext i1 @_ZNK7QWidget9isEnabledEv(ptr noundef align 8 dereferenceable_or_null(40) %8)
  br i1 %20, label %21, label %22

21:                                               ; preds = %19
  call void @_ZN19StockIconToolButton11setIconModeEN5QIcon4ModeE(ptr noundef align 8 dereferenceable_or_null(72) %8, i32 noundef 3)
  br label %22

22:                                               ; preds = %21, %19
  br label %31

23:                                               ; preds = %2
  call void @_ZN19StockIconToolButton11setIconModeEN5QIcon4ModeE(ptr noundef align 8 dereferenceable_or_null(72) %8, i32 noundef 0)
  br label %31

24:                                               ; preds = %2
  call void @_ZN7QStringC2Ev(ptr noundef align 8 dereferenceable_or_null(24) %5) #21
  invoke void @_ZN19StockIconToolButton12setStockIconE7QString(ptr noundef align 8 dereferenceable_or_null(72) %8, ptr noundef %5)
          to label %25 unwind label %26

25:                                               ; preds = %24
  call void @_ZN7QStringD2Ev(ptr noundef align 8 dereferenceable_or_null(24) %5) #21
  br label %31

26:                                               ; preds = %24
  %27 = landingpad { ptr, i32 }
          cleanup
  %28 = extractvalue { ptr, i32 } %27, 0
  store ptr %28, ptr %6, align 8
  %29 = extractvalue { ptr, i32 } %27, 1
  store i32 %29, ptr %7, align 4
  call void @_ZN7QStringD2Ev(ptr noundef align 8 dereferenceable_or_null(24) %5) #21
  br label %34

30:                                               ; preds = %2
  br label %31

31:                                               ; preds = %30, %25, %23, %22, %18, %14
  %32 = load ptr, ptr %4, align 8
  %33 = call noundef zeroext i1 @_ZN11QToolButton5eventEP6QEvent(ptr noundef align 8 dereferenceable_or_null(40) %8, ptr noundef %32)
  ret i1 %33

34:                                               ; preds = %26
  %35 = load ptr, ptr %6, align 8
  %36 = load i32, ptr %7, align 4
  %37 = insertvalue { ptr, i32 } poison, ptr %35, 0
  %38 = insertvalue { ptr, i32 } %37, i32 %36, 1
  resume { ptr, i32 } %38
}