; Function Attrs: mustprogress null_pointer_is_valid sspstrong uwtable
define noundef zeroext i1 @_ZN19StockIconToolButton5eventEP6QEvent(ptr noundef align 8 dereferenceable_or_null(72) %0, ptr noundef %1) unnamed_addr #0 align 2 personality ptr @__gxx_personality_v0 {
  %3 = alloca %class.QString, align 8
  %4 = getelementptr inbounds nuw i8, ptr %1, i64 8
  %5 = load i16, ptr %4, align 8
  switch i16 %5, label %_ZN7QStringD2Ev.exit [
    i16 10, label %6
    i16 11, label %13
    i16 2, label %20
    i16 3, label %27
    i16 38, label %28
  ]

6:                                                ; preds = %2
  %7 = getelementptr inbounds nuw i8, ptr %0, i64 32
  %8 = load ptr, ptr %7, align 8
  %9 = getelementptr inbounds nuw i8, ptr %8, i64 8
  %10 = load i32, ptr %9, align 8
  %11 = and i32 %10, 1
  %.not.i = icmp eq i32 %11, 0
  br i1 %.not.i, label %12, label %_ZN7QStringD2Ev.exit

12:                                               ; preds = %6
  tail call void @_ZN19StockIconToolButton11setIconModeEN5QIcon4ModeE(ptr noundef align 8 dereferenceable_or_null(72) %0, i32 noundef 2)
  br label %_ZN7QStringD2Ev.exit

13:                                               ; preds = %2
  %14 = getelementptr inbounds nuw i8, ptr %0, i64 32
  %15 = load ptr, ptr %14, align 8
  %16 = getelementptr inbounds nuw i8, ptr %15, i64 8
  %17 = load i32, ptr %16, align 8
  %18 = and i32 %17, 1
  %.not.i4 = icmp eq i32 %18, 0
  br i1 %.not.i4, label %19, label %_ZN7QStringD2Ev.exit

19:                                               ; preds = %13
  tail call void @_ZN19StockIconToolButton11setIconModeEN5QIcon4ModeE(ptr noundef align 8 dereferenceable_or_null(72) %0, i32 noundef 0)
  br label %_ZN7QStringD2Ev.exit

20:                                               ; preds = %2
  %21 = getelementptr inbounds nuw i8, ptr %0, i64 32
  %22 = load ptr, ptr %21, align 8
  %23 = getelementptr inbounds nuw i8, ptr %22, i64 8
  %24 = load i32, ptr %23, align 8
  %25 = and i32 %24, 1
  %.not.i5 = icmp eq i32 %25, 0
  br i1 %.not.i5, label %26, label %_ZN7QStringD2Ev.exit

26:                                               ; preds = %20
  tail call void @_ZN19StockIconToolButton11setIconModeEN5QIcon4ModeE(ptr noundef align 8 dereferenceable_or_null(72) %0, i32 noundef 3)
  br label %_ZN7QStringD2Ev.exit

27:                                               ; preds = %2
  tail call void @_ZN19StockIconToolButton11setIconModeEN5QIcon4ModeE(ptr noundef align 8 dereferenceable_or_null(72) %0, i32 noundef 0)
  br label %_ZN7QStringD2Ev.exit

28:                                               ; preds = %2
  call void @llvm.memset.p0.i64(ptr noundef nonnull align 8 dereferenceable(24) dereferenceable_or_null(24) %3, i8 0, i64 24, i1 false)
  invoke void @_ZN19StockIconToolButton12setStockIconE7QString(ptr noundef align 8 dereferenceable_or_null(72) %0, ptr noundef nonnull %3)
          to label %29 unwind label %34

29:                                               ; preds = %28
  %30 = load ptr, ptr %3, align 8
  %.not.i.i.i = icmp eq ptr %30, null
  br i1 %.not.i.i.i, label %_ZN7QStringD2Ev.exit, label %_ZN17QArrayDataPointerIDsE5derefEv.exit.i.i

_ZN17QArrayDataPointerIDsE5derefEv.exit.i.i:      ; preds = %29
  %31 = atomicrmw sub ptr %30, i32 1 seq_cst, align 4
  %.not.i.i = icmp eq i32 %31, 1
  br i1 %.not.i.i, label %32, label %_ZN7QStringD2Ev.exit

32:                                               ; preds = %_ZN17QArrayDataPointerIDsE5derefEv.exit.i.i
  %33 = load ptr, ptr %3, align 8
  call void @_ZN10QArrayData10deallocateEPS_xx(ptr noundef %33, i64 noundef 2, i64 noundef 8) #14
  br label %_ZN7QStringD2Ev.exit

34:                                               ; preds = %28
  %35 = landingpad { ptr, i32 }
          cleanup
  %36 = load ptr, ptr %3, align 8
  %.not.i.i.i6 = icmp eq ptr %36, null
  br i1 %.not.i.i.i6, label %_ZN7QStringD2Ev.exit9, label %_ZN17QArrayDataPointerIDsE5derefEv.exit.i.i7

_ZN17QArrayDataPointerIDsE5derefEv.exit.i.i7:     ; preds = %34
  %37 = atomicrmw sub ptr %36, i32 1 seq_cst, align 4
  %.not.i.i8 = icmp eq i32 %37, 1
  br i1 %.not.i.i8, label %38, label %_ZN7QStringD2Ev.exit9

38:                                               ; preds = %_ZN17QArrayDataPointerIDsE5derefEv.exit.i.i7
  %39 = load ptr, ptr %3, align 8
  call void @_ZN10QArrayData10deallocateEPS_xx(ptr noundef %39, i64 noundef 2, i64 noundef 8) #14
  br label %_ZN7QStringD2Ev.exit9

_ZN7QStringD2Ev.exit9:                            ; preds = %34, %_ZN17QArrayDataPointerIDsE5derefEv.exit.i.i7, %38
  resume { ptr, i32 } %35

_ZN7QStringD2Ev.exit:                             ; preds = %32, %_ZN17QArrayDataPointerIDsE5derefEv.exit.i.i, %29, %2, %20, %26, %13, %19, %6, %12, %27
  %40 = call noundef zeroext i1 @_ZN11QToolButton5eventEP6QEvent(ptr noundef align 8 dereferenceable_or_null(40) %0, ptr noundef %1)
  ret i1 %40
}